target datalayout = "e-m:e-p270:32:32-p271:32:32-p272:64:64-i64:64-i128:128-f80:128-n8:16:32:64-S128"
target triple = "x86_64-pc-linux-gnu"

%struct.pm_location_t = type { ptr, ptr }
%struct.pm_string_t = type { ptr, i64, i32 }
%struct.pm_line_column_t = type { i32, i32 }
%struct.pm_parser = type { i32, i32, i32, i32, i32, i32, i32, %struct.anon, ptr, ptr, %struct.pm_token_t, %struct.pm_token_t, ptr, ptr, %struct.pm_list_t, %struct.pm_list_t, %struct.pm_location_t, %struct.pm_list_t, %struct.pm_list_t, ptr, ptr, ptr, ptr, ptr, ptr, ptr, %struct.pm_string_t, %struct.pm_constant_pool_t, %struct.pm_newline_list_t, i16, %struct.pm_string_t, i32, ptr, ptr, i32, i8, i8, i8, i8, i8, i8, i8, i8, i8, i8, i8, i8, i8 }
%struct.anon = type { ptr, [4 x %struct.pm_lex_mode], i64 }
%struct.pm_lex_mode = type { i32, %union.anon, ptr }
%union.anon = type { %struct.anon.3 }
%struct.anon.3 = type { %struct.pm_heredoc_lex_mode_t, ptr, ptr, i8 }
%struct.pm_heredoc_lex_mode_t = type { ptr, i64, i32, i32 }
%struct.pm_token_t = type { i32, ptr, ptr }
%struct.pm_list_t = type { i64, ptr, ptr }
%struct.pm_constant_pool_t = type { ptr, ptr, i32, i32 }
%struct.pm_newline_list_t = type { ptr, i64, i64, ptr }

@.str.301 = private unnamed_addr constant [16 x i8] c"(%i,%u)-(%i,%u)\00", align 1

; Function Attrs: inlinehint nounwind sspstrong uwtable
define internal void @prettyprint_location(ptr noundef %0, ptr noundef %1, ptr noundef %2) #4 {
  %4 = alloca ptr, align 8
  %5 = alloca ptr, align 8
  %6 = alloca ptr, align 8
  %7 = alloca %struct.pm_line_column_t, align 4
  %8 = alloca %struct.pm_line_column_t, align 4
  store ptr %0, ptr %4, align 8, !tbaa !7
  store ptr %1, ptr %5, align 8, !tbaa !11
  store ptr %2, ptr %6, align 8, !tbaa !7
  call void @llvm.lifetime.start.p0(i64 8, ptr %7) #5
  %9 = load ptr, ptr %5, align 8, !tbaa !11
  %10 = getelementptr inbounds nuw %struct.pm_parser, ptr %9, i32 0, i32 28
  %11 = load ptr, ptr %6, align 8, !tbaa !7
  %12 = getelementptr inbounds nuw %struct.pm_location_t, ptr %11, i32 0, i32 0
  %13 = load ptr, ptr %12, align 8, !tbaa !30
  %14 = load ptr, ptr %5, align 8, !tbaa !11
  %15 = getelementptr inbounds nuw %struct.pm_parser, ptr %14, i32 0, i32 31
  %16 = load i32, ptr %15, align 8, !tbaa !824
  %17 = call i64 @pm_newline_list_line_column(ptr noundef %10, ptr noundef %13, i32 noundef %16)
  store i64 %17, ptr %7, align 4
  call void @llvm.lifetime.start.p0(i64 8, ptr %8) #5
  %18 = load ptr, ptr %5, align 8, !tbaa !11
  %19 = getelementptr inbounds nuw %struct.pm_parser, ptr %18, i32 0, i32 28
  %20 = load ptr, ptr %6, align 8, !tbaa !7
  %21 = getelementptr inbounds nuw %struct.pm_location_t, ptr %20, i32 0, i32 1
  %22 = load ptr, ptr %21, align 8, !tbaa !31
  %23 = load ptr, ptr %5, align 8, !tbaa !11
  %24 = getelementptr inbounds nuw %struct.pm_parser, ptr %23, i32 0, i32 31
  %25 = load i32, ptr %24, align 8, !tbaa !824
  %26 = call i64 @pm_newline_list_line_column(ptr noundef %19, ptr noundef %22, i32 noundef %25)
  store i64 %26, ptr %8, align 4
  %27 = load ptr, ptr %4, align 8, !tbaa !7
  %28 = getelementptr inbounds nuw %struct.pm_line_column_t, ptr %7, i32 0, i32 0
  %29 = load i32, ptr %28, align 4, !tbaa !837
  %30 = getelementptr inbounds nuw %struct.pm_line_column_t, ptr %7, i32 0, i32 1
  %31 = load i32, ptr %30, align 4, !tbaa !839
  %32 = getelementptr inbounds nuw %struct.pm_line_column_t, ptr %8, i32 0, i32 0
  %33 = load i32, ptr %32, align 4, !tbaa !837
  %34 = getelementptr inbounds nuw %struct.pm_line_column_t, ptr %8, i32 0, i32 1
  %35 = load i32, ptr %34, align 4, !tbaa !839
  call void (ptr, ptr, ...) @pm_buffer_append_format(ptr noundef %27, ptr noundef @.str.301, i32 noundef %29, i32 noundef %31, i32 noundef %33, i32 noundef %35)
  call void @llvm.lifetime.end.p0(i64 8, ptr %8) #5
  call void @llvm.lifetime.end.p0(i64 8, ptr %7) #5
  ret void
}