; Function Attrs: inlinehint nounwind sspstrong uwtable
define internal fastcc void @prettyprint_location(ptr noundef %0, ptr noundef %1, ptr noundef readonly captures(none) %2) unnamed_addr #4 {
  %4 = getelementptr inbounds nuw i8, ptr %1, i64 600
  %5 = load ptr, ptr %2, align 8, !tbaa !23
  %6 = getelementptr inbounds nuw i8, ptr %1, i64 664
  %7 = load i32, ptr %6, align 8, !tbaa !559
  %8 = tail call i64 @pm_newline_list_line_column(ptr noundef nonnull %4, ptr noundef %5, i32 noundef %7) #5
  %.sroa.01.0.extract.trunc = trunc i64 %8 to i32
  %.sroa.42.0.extract.shift = lshr i64 %8, 32
  %.sroa.42.0.extract.trunc = trunc nuw i64 %.sroa.42.0.extract.shift to i32
  %9 = getelementptr inbounds nuw i8, ptr %2, i64 8
  %10 = load ptr, ptr %9, align 8, !tbaa !24
  %11 = load i32, ptr %6, align 8, !tbaa !559
  %12 = tail call i64 @pm_newline_list_line_column(ptr noundef nonnull %4, ptr noundef %10, i32 noundef %11) #5
  %.sroa.0.0.extract.trunc = trunc i64 %12 to i32
  %.sroa.4.0.extract.shift = lshr i64 %12, 32
  %.sroa.4.0.extract.trunc = trunc nuw i64 %.sroa.4.0.extract.shift to i32
  tail call void (ptr, ptr, ...) @pm_buffer_append_format(ptr noundef %0, ptr noundef nonnull @.str.301, i32 noundef %.sroa.01.0.extract.trunc, i32 noundef %.sroa.42.0.extract.trunc, i32 noundef %.sroa.0.0.extract.trunc, i32 noundef %.sroa.4.0.extract.trunc) #5
  ret void
}